(lp1
(lp2
I21
aI0
aI0
aa(lp3
I23
aI0
aI0
aa(lp4
I21
aI0
aI0
aa(lp5
I15
aI0
aI0
aa(lp6
I11
aI0
aI0
aa(lp7
I8
aI0
aI0
aa(lp8
I15
aI0
aI0
aa(lp9
I13
aI0
aI0
aa(lp10
I20
aI0
aI0
aa(lp11
I17
aI0
aI0
aa(lp12
I10
aI0
aI0
aa(lp13
I8
aI0
aI0
aa(lp14
I30
aI0
aI0
aa(lp15
I27
aI0
aI0
aa(lp16
I11
aI0
aI0
aa(lp17
I24
aI0
aI0
aa(lp18
I14
aI0
aI0
aa(lp19
I24
aI0
aI0
aa(lp20
I19
aI0
aI0
aa(lp21
I10
aI0
aI0
aa(lp22
I25
aI0
aI0
aa(lp23
I14
aI0
aI0
aa(lp24
I15
aI0
aI0
aa(lp25
I21
aI0
aI0
aa(lp26
I13
aI0
aI0
aa(lp27
I7
aI0
aI0
aa(lp28
I9
aI0
aI0
aa(lp29
I33
aI0
aI0
aa(lp30
I15
aI0
aI0
aa(lp31
I13
aI0
aI0
aa(lp32
I38
aI0
aI0
aa(lp33
I14
aI0
aI0
aa(lp34
I25
aI0
aI0
aa(lp35
I23
aI0
aI0
aa(lp36
I20
aI0
aI0
aa(lp37
I25
aI0
aI0
aa(lp38
I17
aI0
aI0
aa(lp39
I12
aI0
aI0
aa(lp40
I17
aI0
aI0
aa(lp41
I16
aI0
aI0
aa(lp42
I54
aI0
aI0
aa(lp43
I16
aI0
aI0
aa(lp44
I25
aI0
aI0
aa(lp45
I15
aI0
aI0
aa(lp46
I8
aI0
aI0
aa(lp47
I23
aI0
aI0
aa(lp48
I45
aI0
aI0
aa(lp49
I8
aI0
aI0
aa(lp50
I14
aI0
aI0
aa(lp51
I17
aI0
aI0
aa(lp52
I13
aI0
aI0
aa(lp53
I22
aI0
aI0
aa(lp54
I24
aI0
aI0
aa(lp55
I21
aI0
aI0
aa(lp56
I7
aI0
aI0
aa(lp57
I17
aI0
aI0
aa(lp58
I16
aI0
aI0
aa(lp59
I16
aI0
aI0
aa(lp60
I17
aI0
aI0
aa(lp61
I21
aI0
aI0
aa(lp62
I22
aI0
aI0
aa(lp63
I16
aI0
aI0
aa(lp64
I18
aI0
aI0
aa(lp65
I19
aI0
aI0
aa(lp66
I12
aI0
aI0
aa(lp67
I16
aI0
aI0
aa(lp68
I8
aI0
aI0
aa(lp69
I10
aI0
aI0
aa(lp70
I10
aI0
aI0
aa(lp71
I8
aI0
aI0
aa(lp72
I16
aI0
aI0
aa(lp73
I15
aI0
aI0
aa(lp74
I21
aI0
aI0
aa(lp75
I20
aI0
aI0
aa(lp76
I19
aI0
aI0
aa(lp77
I21
aI0
aI0
aa(lp78
I8
aI0
aI0
aa(lp79
I19
aI0
aI0
aa(lp80
I7
aI0
aI0
aa(lp81
I9
aI0
aI0
aa(lp82
I25
aI0
aI0
aa(lp83
I8
aI0
aI0
aa(lp84
I17
aI0
aI0
aa(lp85
I22
aI0
aI0
aa(lp86
I9
aI0
aI0
aa(lp87
I24
aI0
aI0
aa(lp88
I6
aI0
aI0
aa(lp89
I20
aI0
aI0
aa(lp90
I20
aI0
aI0
aa(lp91
I20
aI0
aI0
aa(lp92
I24
aI0
aI0
aa(lp93
I16
aI0
aI0
aa(lp94
I18
aI0
aI0
aa(lp95
I16
aI0
aI0
aa(lp96
I24
aI0
aI0
aa(lp97
I9
aI0
aI0
aa(lp98
I26
aI0
aI0
aa(lp99
I16
aI0
aI0
aa(lp100
I7
aI0
aI0
aa(lp101
I12
aI0
aI0
aa(lp102
I22
aI0
aI0
aa(lp103
I5
aI0
aI0
aa(lp104
I16
aI0
aI0
aa(lp105
I10
aI0
aI0
aa(lp106
I17
aI0
aI0
aa(lp107
I14
aI0
aI0
aa(lp108
I18
aI0
aI0
aa(lp109
I15
aI0
aI0
aa(lp110
I8
aI0
aI0
aa(lp111
I13
aI0
aI0
aa(lp112
I8
aI0
aI0
aa(lp113
I19
aI0
aI0
aa(lp114
I15
aI0
aI0
aa(lp115
I18
aI0
aI0
aa(lp116
I12
aI0
aI0
aa(lp117
I16
aI0
aI0
aa(lp118
I13
aI0
aI0
aa(lp119
I14
aI0
aI0
aa(lp120
I20
aI0
aI0
aa(lp121
I7
aI0
aI0
aa(lp122
I12
aI0
aI0
aa(lp123
I18
aI0
aI0
aa(lp124
I14
aI0
aI0
aa(lp125
I15
aI0
aI0
aa(lp126
I12
aI0
aI0
aa(lp127
I20
aI0
aI0
aa(lp128
I10
aI0
aI0
aa(lp129
I19
aI0
aI0
aa(lp130
I32
aI0
aI0
aa(lp131
I23
aI0
aI0
aa(lp132
I17
aI0
aI0
aa(lp133
I16
aI0
aI0
aa(lp134
I26
aI0
aI0
aa(lp135
I24
aI0
aI0
aa(lp136
I18
aI0
aI0
aa(lp137
I11
aI0
aI0
aa(lp138
I33
aI0
aI0
aa(lp139
I14
aI0
aI0
aa(lp140
I10
aI0
aI0
aa(lp141
I17
aI0
aI0
aa(lp142
I18
aI0
aI0
aa(lp143
I7
aI0
aI0
aa(lp144
I17
aI0
aI0
aa(lp145
I25
aI0
aI0
aa(lp146
I14
aI0
aI0
aa(lp147
I22
aI0
aI0
aa(lp148
I12
aI0
aI0
aa(lp149
I12
aI0
aI0
aa(lp150
I10
aI0
aI0
aa(lp151
I13
aI0
aI0
aa(lp152
I6
aI0
aI0
aa(lp153
I16
aI0
aI0
aa(lp154
I24
aI0
aI0
aa(lp155
I37
aI0
aI0
aa(lp156
I17
aI0
aI0
aa(lp157
I13
aI0
aI0
aa(lp158
I9
aI0
aI0
aa(lp159
I28
aI0
aI0
aa(lp160
I35
aI0
aI0
aa(lp161
I7
aI0
aI0
aa(lp162
I16
aI0
aI0
aa(lp163
I12
aI0
aI0
aa(lp164
I17
aI0
aI0
aa(lp165
I9
aI0
aI0
aa(lp166
I10
aI0
aI0
aa(lp167
I26
aI0
aI0
aa(lp168
I15
aI0
aI0
aa(lp169
I24
aI0
aI0
aa(lp170
I16
aI0
aI0
aa(lp171
I43
aI0
aI0
aa(lp172
I14
aI0
aI0
aa(lp173
I18
aI0
aI0
aa(lp174
I18
aI0
aI0
aa(lp175
I29
aI0
aI0
aa(lp176
I13
aI0
aI0
aa(lp177
I12
aI0
aI0
aa(lp178
I13
aI0
aI0
aa(lp179
I16
aI0
aI0
aa(lp180
I15
aI0
aI0
aa(lp181
I14
aI0
aI0
aa(lp182
I24
aI0
aI0
aa(lp183
I18
aI0
aI0
aa(lp184
I14
aI0
aI0
aa(lp185
I16
aI0
aI0
aa(lp186
I12
aI0
aI0
aa(lp187
I37
aI0
aI0
aa(lp188
I7
aI0
aI0
aa(lp189
I15
aI0
aI0
aa(lp190
I11
aI0
aI0
aa(lp191
I34
aI0
aI0
aa(lp192
I14
aI0
aI0
aa(lp193
I15
aI0
aI0
aa(lp194
I12
aI0
aI0
aa(lp195
I23
aI0
aI0
aa(lp196
I23
aI0
aI0
aa(lp197
I18
aI0
aI0
aa(lp198
I13
aI0
aI0
aa(lp199
I10
aI0
aI0
aa(lp200
I18
aI0
aI0
aa(lp201
I22
aI0
aI0
aa(lp202
I26
aI0
aI0
aa(lp203
I12
aI0
aI0
aa(lp204
I6
aI0
aI0
aa(lp205
I17
aI0
aI0
aa(lp206
I20
aI0
aI0
aa(lp207
I9
aI0
aI0
aa(lp208
I10
aI0
aI0
aa(lp209
I20
aI0
aI0
aa(lp210
I16
aI0
aI0
aa(lp211
I13
aI0
aI0
aa(lp212
I28
aI0
aI0
aa(lp213
I14
aI0
aI0
aa(lp214
I18
aI0
aI0
aa(lp215
I22
aI0
aI0
aa(lp216
I13
aI0
aI0
aa(lp217
I10
aI0
aI0
aa(lp218
I10
aI0
aI0
aa(lp219
I23
aI0
aI0
aa(lp220
I23
aI0
aI0
aa(lp221
I12
aI0
aI0
aa(lp222
I17
aI0
aI0
aa(lp223
I17
aI0
aI0
aa(lp224
I19
aI0
aI0
aa(lp225
I13
aI0
aI0
aa(lp226
I9
aI0
aI0
aa(lp227
I6
aI0
aI0
aa(lp228
I27
aI0
aI0
aa(lp229
I17
aI0
aI0
aa(lp230
I13
aI0
aI0
aa(lp231
I10
aI0
aI0
aa(lp232
I20
aI0
aI0
aa(lp233
I22
aI0
aI0
aa(lp234
I27
aI0
aI0
aa(lp235
I30
aI0
aI0
aa(lp236
I13
aI0
aI0
aa(lp237
I13
aI0
aI0
aa(lp238
I23
aI0
aI0
aa(lp239
I22
aI0
aI0
aa(lp240
I9
aI0
aI0
aa(lp241
I7
aI0
aI0
aa(lp242
I10
aI0
aI0
aa(lp243
I13
aI0
aI0
aa(lp244
I9
aI0
aI0
aa(lp245
I18
aI0
aI0
aa(lp246
I16
aI0
aI0
aa(lp247
I7
aI0
aI0
aa(lp248
I14
aI0
aI0
aa(lp249
I27
aI0
aI0
aa(lp250
I18
aI0
aI0
aa(lp251
I30
aI0
aI0
aa(lp252
I10
aI0
aI0
aa(lp253
I27
aI0
aI0
aa(lp254
I14
aI0
aI0
aa(lp255
I14
aI0
aI0
aa(lp256
I20
aI0
aI0
aa(lp257
I18
aI0
aI0
aa(lp258
I22
aI0
aI0
aa(lp259
I14
aI0
aI0
aa(lp260
I13
aI0
aI0
aa(lp261
I28
aI0
aI0
aa(lp262
I19
aI0
aI0
aa(lp263
I20
aI0
aI0
aa(lp264
I9
aI0
aI0
aa(lp265
I18
aI0
aI0
aa(lp266
I12
aI0
aI0
aa(lp267
I10
aI0
aI0
aa(lp268
I27
aI0
aI0
aa(lp269
I24
aI0
aI0
aa(lp270
I11
aI0
aI0
aa(lp271
I16
aI0
aI0
aa(lp272
I16
aI0
aI0
aa(lp273
I25
aI0
aI0
aa(lp274
I21
aI0
aI0
aa(lp275
I16
aI0
aI0
aa(lp276
I18
aI0
aI0
aa(lp277
I12
aI0
aI0
aa(lp278
I13
aI0
aI0
aa(lp279
I46
aI0
aI0
aa(lp280
I12
aI0
aI0
aa(lp281
I9
aI0
aI0
aa(lp282
I16
aI0
aI0
aa(lp283
I23
aI0
aI0
aa(lp284
I13
aI0
aI0
aa(lp285
I26
aI0
aI0
aa(lp286
I30
aI0
aI0
aa(lp287
I12
aI0
aI0
aa(lp288
I6
aI0
aI0
aa(lp289
I28
aI0
aI0
aa(lp290
I16
aI0
aI0
aa(lp291
I8
aI0
aI0
aa(lp292
I19
aI0
aI0
aa(lp293
I13
aI0
aI0
aa(lp294
I27
aI0
aI0
aa(lp295
I14
aI0
aI0
aa(lp296
I10
aI0
aI0
aa(lp297
I8
aI0
aI0
aa(lp298
I13
aI0
aI0
aa(lp299
I14
aI0
aI0
aa(lp300
I9
aI0
aI0
aa(lp301
I19
aI0
aI0
aa(lp302
I8
aI0
aI0
aa(lp303
I25
aI0
aI0
aa(lp304
I20
aI0
aI0
aa(lp305
I11
aI0
aI0
aa(lp306
I26
aI0
aI0
aa(lp307
I38
aI0
aI0
aa(lp308
I19
aI0
aI0
aa(lp309
I17
aI0
aI0
aa(lp310
I9
aI0
aI0
aa(lp311
I13
aI0
aI0
aa(lp312
I19
aI0
aI0
aa(lp313
I28
aI0
aI0
aa(lp314
I14
aI0
aI0
aa(lp315
I14
aI0
aI0
aa(lp316
I13
aI0
aI0
aa(lp317
I21
aI0
aI0
aa(lp318
I33
aI0
aI0
aa(lp319
I25
aI0
aI0
aa(lp320
I21
aI0
aI0
aa(lp321
I17
aI0
aI0
aa(lp322
I12
aI0
aI0
aa(lp323
I12
aI0
aI0
aa(lp324
I12
aI0
aI0
aa(lp325
I19
aI0
aI0
aa(lp326
I26
aI0
aI0
aa(lp327
I24
aI0
aI0
aa(lp328
I15
aI0
aI0
aa(lp329
I17
aI0
aI0
aa(lp330
I31
aI0
aI0
aa(lp331
I22
aI0
aI0
aa(lp332
I13
aI0
aI0
aa(lp333
I32
aI0
aI0
aa(lp334
I17
aI0
aI0
aa(lp335
I11
aI0
aI0
aa(lp336
I27
aI0
aI0
aa(lp337
I23
aI0
aI0
aa(lp338
I21
aI0
aI0
aa(lp339
I17
aI0
aI0
aa(lp340
I15
aI0
aI0
aa(lp341
I12
aI0
aI0
aa(lp342
I10
aI0
aI0
aa(lp343
I13
aI0
aI0
aa(lp344
I15
aI0
aI0
aa(lp345
I12
aI0
aI0
aa(lp346
I6
aI0
aI0
aa(lp347
I13
aI0
aI0
aa(lp348
I22
aI0
aI0
aa(lp349
I35
aI0
aI0
aa(lp350
I13
aI0
aI0
aa(lp351
I29
aI0
aI0
aa(lp352
I22
aI0
aI0
aa(lp353
I24
aI0
aI0
aa(lp354
I23
aI0
aI0
aa(lp355
I36
aI0
aI0
aa(lp356
I14
aI0
aI0
aa(lp357
I24
aI0
aI0
aa(lp358
I12
aI0
aI0
aa(lp359
I18
aI0
aI0
aa(lp360
I8
aI0
aI0
aa(lp361
I15
aI0
aI0
aa(lp362
I23
aI0
aI0
aa(lp363
I9
aI0
aI0
aa(lp364
I10
aI0
aI0
aa(lp365
I5
aI0
aI0
aa(lp366
I20
aI0
aI0
aa(lp367
I29
aI0
aI0
aa(lp368
I9
aI0
aI0
aa(lp369
I17
aI0
aI0
aa(lp370
I14
aI0
aI0
aa(lp371
I16
aI0
aI0
aa(lp372
I14
aI0
aI0
aa(lp373
I21
aI0
aI0
aa(lp374
I27
aI0
aI0
aa(lp375
I17
aI0
aI0
aa(lp376
I16
aI0
aI0
aa(lp377
I15
aI0
aI0
aa(lp378
I13
aI0
aI0
aa(lp379
I10
aI0
aI0
aa(lp380
I16
aI0
aI0
aa(lp381
I16
aI0
aI0
aa(lp382
I27
aI0
aI0
aa(lp383
I19
aI0
aI0
aa(lp384
I13
aI0
aI0
aa(lp385
I24
aI0
aI0
aa(lp386
I16
aI0
aI0
aa(lp387
I7
aI0
aI0
aa(lp388
I9
aI0
aI0
aa(lp389
I19
aI0
aI0
aa(lp390
I18
aI0
aI0
aa(lp391
I15
aI0
aI0
aa(lp392
I19
aI0
aI0
aa(lp393
I11
aI0
aI0
aa(lp394
I23
aI0
aI0
aa(lp395
I28
aI0
aI0
aa(lp396
I18
aI0
aI0
aa(lp397
I21
aI0
aI0
aa(lp398
I12
aI0
aI0
aa(lp399
I11
aI0
aI0
aa(lp400
I14
aI0
aI0
aa(lp401
I17
aI0
aI0
aa(lp402
I26
aI0
aI0
aa(lp403
I25
aI0
aI0
aa(lp404
I18
aI0
aI0
aa(lp405
I27
aI0
aI0
aa(lp406
I30
aI0
aI0
aa(lp407
I11
aI0
aI0
aa(lp408
I9
aI0
aI0
aa(lp409
I19
aI0
aI0
aa(lp410
I28
aI0
aI0
aa(lp411
I8
aI0
aI0
aa(lp412
I21
aI0
aI0
aa(lp413
I10
aI0
aI0
aa(lp414
I13
aI0
aI0
aa(lp415
I35
aI0
aI0
aa(lp416
I38
aI0
aI0
aa(lp417
I20
aI0
aI0
aa(lp418
I15
aI0
aI0
aa(lp419
I11
aI0
aI0
aa(lp420
I13
aI0
aI0
aa(lp421
I17
aI0
aI0
aa(lp422
I10
aI0
aI0
aa(lp423
I17
aI0
aI0
aa(lp424
I10
aI0
aI0
aa(lp425
I20
aI0
aI0
aa(lp426
I15
aI0
aI0
aa(lp427
I22
aI0
aI0
aa(lp428
I18
aI0
aI0
aa(lp429
I32
aI0
aI0
aa(lp430
I21
aI0
aI0
aa(lp431
I18
aI0
aI0
aa(lp432
I21
aI0
aI0
aa(lp433
I11
aI0
aI0
aa(lp434
I23
aI0
aI0
aa(lp435
I22
aI0
aI0
aa(lp436
I17
aI0
aI0
aa(lp437
I20
aI0
aI0
aa(lp438
I17
aI0
aI0
aa(lp439
I14
aI0
aI0
aa(lp440
I28
aI0
aI0
aa(lp441
I9
aI0
aI0
aa(lp442
I20
aI0
aI0
aa(lp443
I34
aI0
aI0
aa(lp444
I15
aI0
aI0
aa(lp445
I18
aI0
aI0
aa(lp446
I14
aI0
aI0
aa(lp447
I18
aI0
aI0
aa(lp448
I28
aI0
aI0
aa(lp449
I15
aI0
aI0
aa(lp450
I22
aI0
aI0
aa(lp451
I21
aI0
aI0
aa(lp452
I17
aI0
aI0
aa(lp453
I14
aI0
aI0
aa(lp454
I17
aI0
aI0
aa(lp455
I16
aI0
aI0
aa(lp456
I17
aI0
aI0
aa(lp457
I36
aI0
aI0
aa(lp458
I23
aI0
aI0
aa(lp459
I13
aI0
aI0
aa(lp460
I34
aI0
aI0
aa(lp461
I13
aI0
aI0
aa(lp462
I20
aI0
aI0
aa(lp463
I24
aI0
aI0
aa(lp464
I10
aI0
aI0
aa(lp465
I6
aI0
aI0
aa(lp466
I15
aI0
aI0
aa(lp467
I16
aI0
aI0
aa(lp468
I10
aI0
aI0
aa(lp469
I13
aI0
aI0
aa(lp470
I44
aI0
aI0
aa(lp471
I10
aI0
aI0
aa(lp472
I19
aI0
aI0
aa(lp473
I18
aI0
aI0
aa(lp474
I23
aI0
aI0
aa(lp475
I13
aI0
aI0
aa(lp476
I15
aI0
aI0
aa(lp477
I16
aI0
aI0
aa(lp478
I9
aI0
aI0
aa(lp479
I37
aI0
aI0
aa(lp480
I30
aI0
aI0
aa(lp481
I4
aI0
aI0
aa(lp482
I29
aI0
aI0
aa(lp483
I19
aI0
aI0
aa(lp484
I16
aI0
aI0
aa(lp485
I13
aI0
aI0
aa(lp486
I25
aI0
aI0
aa(lp487
I15
aI0
aI0
aa(lp488
I14
aI0
aI0
aa(lp489
I23
aI0
aI0
aa(lp490
I12
aI0
aI0
aa(lp491
I14
aI0
aI0
aa(lp492
I11
aI0
aI0
aa(lp493
I25
aI0
aI0
aa(lp494
I10
aI0
aI0
aa(lp495
I41
aI0
aI0
aa(lp496
I22
aI0
aI0
aa(lp497
I19
aI0
aI0
aa(lp498
I18
aI0
aI0
aa(lp499
I23
aI0
aI0
aa(lp500
I22
aI0
aI0
aa(lp501
I20
aI0
aI0
aa(lp502
I25
aI0
aI0
aa(lp503
I25
aI0
aI0
aa(lp504
I15
aI0
aI0
aa(lp505
I20
aI0
aI0
aa(lp506
I22
aI0
aI0
aa(lp507
I10
aI0
aI0
aa(lp508
I16
aI0
aI0
aa(lp509
I9
aI0
aI0
aa(lp510
I27
aI0
aI0
aa(lp511
I20
aI0
aI0
aa(lp512
I20
aI0
aI0
aa(lp513
I17
aI0
aI0
aa(lp514
I16
aI0
aI0
aa(lp515
I13
aI0
aI0
aa(lp516
I10
aI0
aI0
aa(lp517
I15
aI0
aI0
aa(lp518
I18
aI0
aI0
aa(lp519
I6
aI0
aI0
aa(lp520
I38
aI0
aI0
aa(lp521
I11
aI0
aI0
aa(lp522
I13
aI0
aI0
aa(lp523
I11
aI0
aI0
aa(lp524
I19
aI0
aI0
aa(lp525
I13
aI0
aI0
aa(lp526
I12
aI0
aI0
aa(lp527
I13
aI0
aI0
aa(lp528
I16
aI0
aI0
aa(lp529
I8
aI0
aI0
aa(lp530
I18
aI0
aI0
aa(lp531
I45
aI0
aI0
aa(lp532
I10
aI0
aI0
aa(lp533
I8
aI0
aI0
aa(lp534
I22
aI0
aI0
aa(lp535
I11
aI0
aI0
aa(lp536
I26
aI0
aI0
aa(lp537
I14
aI0
aI0
aa(lp538
I22
aI0
aI0
aa(lp539
I8
aI0
aI0
aa(lp540
I24
aI0
aI0
aa(lp541
I15
aI0
aI0
aa(lp542
I18
aI0
aI0
aa(lp543
I29
aI0
aI0
aa(lp544
I18
aI0
aI0
aa(lp545
I10
aI0
aI0
aa(lp546
I17
aI0
aI0
aa(lp547
I18
aI0
aI0
aa(lp548
I27
aI0
aI0
aa(lp549
I10
aI0
aI0
aa(lp550
I20
aI0
aI0
aa(lp551
I11
aI0
aI0
aa(lp552
I15
aI0
aI0
aa(lp553
I29
aI0
aI0
aa(lp554
I18
aI0
aI0
aa(lp555
I23
aI0
aI0
aa(lp556
I13
aI0
aI0
aa(lp557
I13
aI0
aI0
aa(lp558
I22
aI0
aI0
aa(lp559
I19
aI0
aI0
aa(lp560
I15
aI0
aI0
aa(lp561
I14
aI0
aI0
aa(lp562
I24
aI0
aI0
aa(lp563
I13
aI0
aI0
aa(lp564
I23
aI0
aI0
aa(lp565
I15
aI0
aI0
aa(lp566
I11
aI0
aI0
aa(lp567
I11
aI0
aI0
aa(lp568
I22
aI0
aI0
aa(lp569
I14
aI0
aI0
aa(lp570
I18
aI0
aI0
aa(lp571
I9
aI0
aI0
aa(lp572
I21
aI0
aI0
aa(lp573
I15
aI0
aI0
aa(lp574
I21
aI0
aI0
aa(lp575
I12
aI0
aI0
aa(lp576
I14
aI0
aI0
aa(lp577
I16
aI0
aI0
aa(lp578
I14
aI0
aI0
aa(lp579
I16
aI0
aI0
aa(lp580
I28
aI0
aI0
aa(lp581
I23
aI0
aI0
aa(lp582
I11
aI0
aI0
aa(lp583
I38
aI0
aI0
aa(lp584
I33
aI0
aI0
aa(lp585
I20
aI0
aI0
aa(lp586
I27
aI0
aI0
aa(lp587
I29
aI0
aI0
aa(lp588
I16
aI0
aI0
aa(lp589
I17
aI0
aI0
aa(lp590
I6
aI0
aI0
aa(lp591
I19
aI0
aI0
aa(lp592
I17
aI0
aI0
aa(lp593
I8
aI0
aI0
aa(lp594
I30
aI0
aI0
aa(lp595
I18
aI0
aI0
aa(lp596
I20
aI0
aI0
aa(lp597
I14
aI0
aI0
aa(lp598
I20
aI0
aI0
aa(lp599
I14
aI0
aI0
aa(lp600
I25
aI0
aI0
aa(lp601
I12
aI0
aI0
aa(lp602
I14
aI0
aI0
aa(lp603
I10
aI0
aI0
aa(lp604
I16
aI0
aI0
aa(lp605
I5
aI0
aI0
aa(lp606
I15
aI0
aI0
aa(lp607
I18
aI0
aI0
aa(lp608
I21
aI0
aI0
aa(lp609
I19
aI0
aI0
aa(lp610
I7
aI0
aI0
aa(lp611
I14
aI0
aI0
aa(lp612
I18
aI0
aI0
aa(lp613
I11
aI0
aI0
aa(lp614
I24
aI0
aI0
aa(lp615
I14
aI0
aI0
aa(lp616
I13
aI0
aI0
aa(lp617
I15
aI0
aI0
aa(lp618
I22
aI0
aI0
aa(lp619
I28
aI0
aI0
aa(lp620
I20
aI0
aI0
aa(lp621
I22
aI0
aI0
aa(lp622
I28
aI0
aI0
aa(lp623
I36
aI0
aI0
aa(lp624
I24
aI0
aI0
aa(lp625
I18
aI0
aI0
aa(lp626
I20
aI0
aI0
aa(lp627
I18
aI0
aI0
aa(lp628
I15
aI0
aI0
aa(lp629
I16
aI0
aI0
aa(lp630
I12
aI0
aI0
aa(lp631
I11
aI0
aI0
aa(lp632
I18
aI0
aI0
aa(lp633
I17
aI0
aI0
aa(lp634
I8
aI0
aI0
aa(lp635
I8
aI0
aI0
aa(lp636
I13
aI0
aI0
aa(lp637
I11
aI0
aI0
aa(lp638
I8
aI0
aI0
aa(lp639
I40
aI0
aI0
aa(lp640
I23
aI0
aI0
aa(lp641
I22
aI0
aI0
aa(lp642
I12
aI0
aI0
aa(lp643
I33
aI0
aI0
aa(lp644
I14
aI0
aI0
aa(lp645
I24
aI0
aI0
aa(lp646
I19
aI0
aI0
aa(lp647
I7
aI0
aI0
aa(lp648
I14
aI0
aI0
aa(lp649
I16
aI0
aI0
aa(lp650
I30
aI0
aI0
aa(lp651
I26
aI0
aI0
aa(lp652
I15
aI0
aI0
aa(lp653
I12
aI0
aI0
aa(lp654
I18
aI0
aI0
aa(lp655
I12
aI0
aI0
aa(lp656
I15
aI0
aI0
aa(lp657
I19
aI0
aI0
aa(lp658
I16
aI0
aI0
aa(lp659
I7
aI0
aI0
aa(lp660
I22
aI0
aI0
aa(lp661
I15
aI0
aI0
aa(lp662
I12
aI0
aI0
aa(lp663
I13
aI0
aI0
aa(lp664
I30
aI0
aI0
aa(lp665
I40
aI0
aI0
aa(lp666
I27
aI0
aI0
aa(lp667
I45
aI0
aI0
aa(lp668
I26
aI0
aI0
aa(lp669
I21
aI0
aI0
aa(lp670
I27
aI0
aI0
aa(lp671
I19
aI0
aI0
aa(lp672
I25
aI0
aI0
aa(lp673
I14
aI0
aI0
aa(lp674
I14
aI0
aI0
aa(lp675
I29
aI0
aI0
aa(lp676
I14
aI0
aI0
aa(lp677
I6
aI0
aI0
aa(lp678
I41
aI0
aI0
aa(lp679
I22
aI0
aI0
aa(lp680
I22
aI0
aI0
aa(lp681
I17
aI0
aI0
aa(lp682
I18
aI0
aI0
aa(lp683
I16
aI0
aI0
aa(lp684
I23
aI0
aI0
aa(lp685
I16
aI0
aI0
aa(lp686
I17
aI0
aI0
aa(lp687
I48
aI0
aI0
aa(lp688
I15
aI0
aI0
aa(lp689
I6
aI0
aI0
aa(lp690
I14
aI0
aI0
aa(lp691
I10
aI0
aI0
aa(lp692
I11
aI0
aI0
aa(lp693
I26
aI0
aI0
aa(lp694
I15
aI0
aI0
aa(lp695
I16
aI0
aI0
aa(lp696
I15
aI0
aI0
aa(lp697
I8
aI0
aI0
aa(lp698
I8
aI0
aI0
aa(lp699
I35
aI0
aI0
aa(lp700
I13
aI0
aI0
aa(lp701
I26
aI0
aI0
aa(lp702
I23
aI0
aI0
aa(lp703
I15
aI0
aI0
aa(lp704
I27
aI0
aI0
aa(lp705
I21
aI0
aI0
aa(lp706
I17
aI0
aI0
aa(lp707
I26
aI0
aI0
aa(lp708
I23
aI0
aI0
aa(lp709
I9
aI0
aI0
aa(lp710
I20
aI0
aI0
aa(lp711
I16
aI0
aI0
aa(lp712
I9
aI0
aI0
aa(lp713
I19
aI0
aI0
aa(lp714
I24
aI0
aI0
aa(lp715
I12
aI0
aI0
aa(lp716
I30
aI0
aI0
aa(lp717
I12
aI0
aI0
aa(lp718
I14
aI0
aI0
aa(lp719
I21
aI0
aI0
aa(lp720
I17
aI0
aI0
aa(lp721
I13
aI0
aI0
aa(lp722
I20
aI0
aI0
aa(lp723
I17
aI0
aI0
aa(lp724
I17
aI0
aI0
aa(lp725
I25
aI0
aI0
aa(lp726
I11
aI0
aI0
aa(lp727
I24
aI0
aI0
aa(lp728
I20
aI0
aI0
aa(lp729
I27
aI0
aI0
aa(lp730
I16
aI0
aI0
aa(lp731
I10
aI0
aI0
aa(lp732
I23
aI0
aI0
aa(lp733
I27
aI0
aI0
aa(lp734
I17
aI0
aI0
aa(lp735
I27
aI0
aI0
aa(lp736
I32
aI0
aI0
aa(lp737
I8
aI0
aI0
aa(lp738
I6
aI0
aI0
aa(lp739
I14
aI0
aI0
aa(lp740
I26
aI0
aI0
aa(lp741
I22
aI0
aI0
aa(lp742
I20
aI0
aI0
aa(lp743
I25
aI0
aI0
aa(lp744
I16
aI0
aI0
aa(lp745
I18
aI0
aI0
aa(lp746
I13
aI0
aI0
aa(lp747
I8
aI0
aI0
aa(lp748
I13
aI0
aI0
aa(lp749
I23
aI0
aI0
aa(lp750
I26
aI0
aI0
aa(lp751
I16
aI0
aI0
aa(lp752
I7
aI0
aI0
aa(lp753
I24
aI0
aI0
aa(lp754
I16
aI0
aI0
aa(lp755
I23
aI0
aI0
aa(lp756
I12
aI0
aI0
aa(lp757
I24
aI0
aI0
aa(lp758
I8
aI0
aI0
aa(lp759
I15
aI0
aI0
aa(lp760
I15
aI0
aI0
aa(lp761
I11
aI0
aI0
aa(lp762
I25
aI0
aI0
aa(lp763
I18
aI0
aI0
aa(lp764
I16
aI0
aI0
aa(lp765
I9
aI0
aI0
aa(lp766
I21
aI0
aI0
aa(lp767
I19
aI0
aI0
aa(lp768
I21
aI0
aI0
aa(lp769
I19
aI0
aI0
aa(lp770
I22
aI0
aI0
aa(lp771
I10
aI0
aI0
aa(lp772
I19
aI0
aI0
aa(lp773
I13
aI0
aI0
aa(lp774
I17
aI0
aI0
aa(lp775
I7
aI0
aI0
aa(lp776
I13
aI0
aI0
aa(lp777
I13
aI0
aI0
aa(lp778
I25
aI0
aI0
aa(lp779
I17
aI0
aI0
aa(lp780
I17
aI0
aI0
aa(lp781
I12
aI0
aI0
aa(lp782
I10
aI0
aI0
aa(lp783
I13
aI0
aI0
aa(lp784
I18
aI0
aI0
aa(lp785
I27
aI0
aI0
aa(lp786
I10
aI0
aI0
aa(lp787
I21
aI0
aI0
aa(lp788
I18
aI0
aI0
aa(lp789
I15
aI0
aI0
aa(lp790
I18
aI0
aI0
aa(lp791
I21
aI0
aI0
aa(lp792
I22
aI0
aI0
aa(lp793
I6
aI0
aI0
aa(lp794
I11
aI0
aI0
aa(lp795
I15
aI0
aI0
aa(lp796
I25
aI0
aI0
aa(lp797
I19
aI0
aI0
aa(lp798
I14
aI0
aI0
aa(lp799
I21
aI0
aI0
aa(lp800
I22
aI0
aI0
aa(lp801
I27
aI0
aI0
aa(lp802
I13
aI0
aI0
aa(lp803
I7
aI0
aI0
aa(lp804
I6
aI0
aI0
aa(lp805
I24
aI0
aI0
aa(lp806
I17
aI0
aI0
aa(lp807
I16
aI0
aI0
aa(lp808
I12
aI0
aI0
aa(lp809
I8
aI0
aI0
aa(lp810
I11
aI0
aI0
aa(lp811
I19
aI0
aI0
aa(lp812
I23
aI0
aI0
aa(lp813
I19
aI0
aI0
aa(lp814
I18
aI0
aI0
aa(lp815
I24
aI0
aI0
aa(lp816
I23
aI0
aI0
aa(lp817
I19
aI0
aI0
aa(lp818
I11
aI0
aI0
aa(lp819
I19
aI0
aI0
aa(lp820
I9
aI0
aI0
aa(lp821
I17
aI0
aI0
aa(lp822
I21
aI0
aI0
aa(lp823
I18
aI0
aI0
aa(lp824
I13
aI0
aI0
aa(lp825
I16
aI0
aI0
aa(lp826
I9
aI0
aI0
aa(lp827
I10
aI0
aI0
aa(lp828
I14
aI0
aI0
aa(lp829
I26
aI0
aI0
aa(lp830
I25
aI0
aI0
aa(lp831
I10
aI0
aI0
aa(lp832
I26
aI0
aI0
aa(lp833
I8
aI0
aI0
aa(lp834
I15
aI0
aI0
aa(lp835
I13
aI0
aI0
aa(lp836
I22
aI0
aI0
aa(lp837
I21
aI0
aI0
aa(lp838
I18
aI0
aI0
aa(lp839
I11
aI0
aI0
aa(lp840
I15
aI0
aI0
aa(lp841
I24
aI0
aI0
aa(lp842
I8
aI0
aI0
aa(lp843
I19
aI0
aI0
aa(lp844
I12
aI0
aI0
aa(lp845
I33
aI0
aI0
aa(lp846
I23
aI0
aI0
aa(lp847
I16
aI0
aI0
aa(lp848
I22
aI0
aI0
aa(lp849
I9
aI0
aI0
aa(lp850
I20
aI0
aI0
aa(lp851
I17
aI0
aI0
aa(lp852
I18
aI0
aI0
aa(lp853
I29
aI0
aI0
aa(lp854
I10
aI0
aI0
aa(lp855
I12
aI0
aI0
aa(lp856
I6
aI0
aI0
aa(lp857
I13
aI0
aI0
aa(lp858
I30
aI0
aI0
aa(lp859
I18
aI0
aI0
aa(lp860
I36
aI0
aI0
aa(lp861
I24
aI0
aI0
aa(lp862
I12
aI0
aI0
aa(lp863
I18
aI0
aI0
aa(lp864
I14
aI0
aI0
aa(lp865
I14
aI0
aI0
aa(lp866
I20
aI0
aI0
aa(lp867
I37
aI0
aI0
aa(lp868
I36
aI0
aI0
aa(lp869
I12
aI0
aI0
aa(lp870
I13
aI0
aI0
aa(lp871
I36
aI0
aI0
aa(lp872
I10
aI0
aI0
aa(lp873
I25
aI0
aI0
aa(lp874
I34
aI0
aI0
aa(lp875
I20
aI0
aI0
aa(lp876
I17
aI0
aI0
aa(lp877
I19
aI0
aI0
aa(lp878
I7
aI0
aI0
aa(lp879
I20
aI0
aI0
aa(lp880
I15
aI0
aI0
aa(lp881
I15
aI0
aI0
aa(lp882
I7
aI0
aI0
aa(lp883
I12
aI0
aI0
aa(lp884
I11
aI0
aI0
aa(lp885
I21
aI0
aI0
aa(lp886
I17
aI0
aI0
aa(lp887
I46
aI0
aI0
aa(lp888
I13
aI0
aI0
aa(lp889
I22
aI0
aI0
aa(lp890
I16
aI0
aI0
aa(lp891
I20
aI0
aI0
aa(lp892
I10
aI0
aI0
aa(lp893
I13
aI0
aI0
aa(lp894
I17
aI0
aI0
aa(lp895
I17
aI0
aI0
aa(lp896
I23
aI0
aI0
aa(lp897
I20
aI0
aI0
aa(lp898
I22
aI0
aI0
aa(lp899
I23
aI0
aI0
aa(lp900
I17
aI0
aI0
aa(lp901
I24
aI0
aI0
aa(lp902
I15
aI0
aI0
aa(lp903
I9
aI0
aI0
aa(lp904
I44
aI0
aI0
aa(lp905
I42
aI0
aI0
aa(lp906
I16
aI0
aI0
aa(lp907
I13
aI0
aI0
aa(lp908
I15
aI0
aI0
aa(lp909
I18
aI0
aI0
aa(lp910
I22
aI0
aI0
aa(lp911
I14
aI0
aI0
aa(lp912
I22
aI0
aI0
aa(lp913
I14
aI0
aI0
aa(lp914
I10
aI0
aI0
aa(lp915
I23
aI0
aI0
aa(lp916
I34
aI0
aI0
aa(lp917
I18
aI0
aI0
aa(lp918
I24
aI0
aI0
aa(lp919
I16
aI0
aI0
aa(lp920
I18
aI0
aI0
aa(lp921
I14
aI0
aI0
aa(lp922
I8
aI0
aI0
aa(lp923
I13
aI0
aI0
aa(lp924
I11
aI0
aI0
aa(lp925
I23
aI0
aI0
aa(lp926
I21
aI0
aI0
aa(lp927
I16
aI0
aI0
aa(lp928
I14
aI0
aI0
aa(lp929
I17
aI0
aI0
aa(lp930
I10
aI0
aI0
aa(lp931
I14
aI0
aI0
aa(lp932
I17
aI0
aI0
aa(lp933
I17
aI0
aI0
aa(lp934
I18
aI0
aI0
aa(lp935
I22
aI0
aI0
aa(lp936
I6
aI0
aI0
aa(lp937
I14
aI0
aI0
aa(lp938
I9
aI0
aI0
aa(lp939
I9
aI0
aI0
aa(lp940
I21
aI0
aI0
aa(lp941
I17
aI0
aI0
aa(lp942
I25
aI0
aI0
aa(lp943
I17
aI0
aI0
aa(lp944
I17
aI0
aI0
aa(lp945
I11
aI0
aI0
aa(lp946
I14
aI0
aI0
aa(lp947
I21
aI0
aI0
aa(lp948
I9
aI0
aI0
aa(lp949
I13
aI0
aI0
aa(lp950
I22
aI0
aI0
aa(lp951
I12
aI0
aI0
aa(lp952
I17
aI0
aI0
aa(lp953
I32
aI0
aI0
aa(lp954
I26
aI0
aI0
aa(lp955
I11
aI0
aI0
aa(lp956
I19
aI0
aI0
aa(lp957
I13
aI0
aI0
aa(lp958
I20
aI0
aI0
aa(lp959
I23
aI0
aI0
aa(lp960
I14
aI0
aI0
aa(lp961
I19
aI0
aI0
aa(lp962
I12
aI0
aI0
aa(lp963
I31
aI0
aI0
aa(lp964
I22
aI0
aI0
aa(lp965
I17
aI0
aI0
aa(lp966
I6
aI0
aI0
aa(lp967
I20
aI0
aI0
aa(lp968
I6
aI0
aI0
aa(lp969
I21
aI0
aI0
aa(lp970
I10
aI0
aI0
aa(lp971
I20
aI0
aI0
aa(lp972
I19
aI0
aI0
aa(lp973
I8
aI0
aI0
aa(lp974
I8
aI0
aI0
aa(lp975
I22
aI0
aI0
aa(lp976
I19
aI0
aI0
aa(lp977
I31
aI0
aI0
aa(lp978
I22
aI0
aI0
aa(lp979
I15
aI0
aI0
aa(lp980
I9
aI0
aI0
aa(lp981
I22
aI0
aI0
aa(lp982
I12
aI0
aI0
aa(lp983
I13
aI0
aI0
aa(lp984
I22
aI0
aI0
aa(lp985
I11
aI0
aI0
aa(lp986
I22
aI0
aI0
aa(lp987
I14
aI0
aI0
aa(lp988
I16
aI0
aI0
aa(lp989
I25
aI0
aI0
aa(lp990
I19
aI0
aI0
aa(lp991
I14
aI0
aI0
aa(lp992
I14
aI0
aI0
aa(lp993
I17
aI0
aI0
aa(lp994
I22
aI0
aI0
aa(lp995
I9
aI0
aI0
aa(lp996
I34
aI0
aI0
aa(lp997
I31
aI0
aI0
aa(lp998
I11
aI0
aI0
aa(lp999
I22
aI0
aI0
aa(lp1000
I8
aI0
aI0
aa(lp1001
I11
aI0
aI0
aa(lp1002
I7
aI0
aI0
aa(lp1003
I7
aI0
aI0
aa(lp1004
I10
aI0
aI0
aa(lp1005
I13
aI0
aI0
aa(lp1006
I13
aI0
aI0
aa(lp1007
I23
aI0
aI0
aa(lp1008
I9
aI0
aI0
aa(lp1009
I23
aI0
aI0
aa(lp1010
I26
aI0
aI0
aa(lp1011
I15
aI0
aI0
aa(lp1012
I16
aI0
aI0
aa.